target datalayout = "e-m:e-p270:32:32-p271:32:32-p272:64:64-i64:64-i128:128-f80:128-n8:16:32:64-S128"
target triple = "x86_64-pc-linux-gnu"

%struct.AlterTableCmd = type { i32, i32, ptr, i16, ptr, ptr, i32, i8, i8 }

; Function Attrs: nounwind uwtable
define internal zeroext i1 @_equalAlterTableCmd(ptr noundef %0, ptr noundef %1) #0 {
  %3 = alloca i1, align 1
  %4 = alloca ptr, align 8
  %5 = alloca ptr, align 8
  store ptr %0, ptr %4, align 8
  store ptr %1, ptr %5, align 8
  br label %6

6:                                                ; preds = %2
  %7 = load ptr, ptr %4, align 8
  %8 = getelementptr inbounds nuw %struct.AlterTableCmd, ptr %7, i32 0, i32 1
  %9 = load i32, ptr %8, align 4
  %10 = load ptr, ptr %5, align 8
  %11 = getelementptr inbounds nuw %struct.AlterTableCmd, ptr %10, i32 0, i32 1
  %12 = load i32, ptr %11, align 4
  %13 = icmp ne i32 %9, %12
  br i1 %13, label %14, label %15

14:                                               ; preds = %6
  store i1 false, ptr %3, align 1
  br label %123

15:                                               ; preds = %6
  br label %16

16:                                               ; preds = %15
  br label %17

17:                                               ; preds = %16
  %18 = load ptr, ptr %4, align 8
  %19 = getelementptr inbounds nuw %struct.AlterTableCmd, ptr %18, i32 0, i32 2
  %20 = load ptr, ptr %19, align 8
  %21 = icmp ne ptr %20, null
  br i1 %21, label %22, label %36

22:                                               ; preds = %17
  %23 = load ptr, ptr %5, align 8
  %24 = getelementptr inbounds nuw %struct.AlterTableCmd, ptr %23, i32 0, i32 2
  %25 = load ptr, ptr %24, align 8
  %26 = icmp ne ptr %25, null
  br i1 %26, label %27, label %36

27:                                               ; preds = %22
  %28 = load ptr, ptr %4, align 8
  %29 = getelementptr inbounds nuw %struct.AlterTableCmd, ptr %28, i32 0, i32 2
  %30 = load ptr, ptr %29, align 8
  %31 = load ptr, ptr %5, align 8
  %32 = getelementptr inbounds nuw %struct.AlterTableCmd, ptr %31, i32 0, i32 2
  %33 = load ptr, ptr %32, align 8
  %34 = call i32 @strcmp(ptr noundef %30, ptr noundef %33) #8
  %35 = icmp eq i32 %34, 0
  br i1 %35, label %45, label %44

36:                                               ; preds = %22, %17
  %37 = load ptr, ptr %4, align 8
  %38 = getelementptr inbounds nuw %struct.AlterTableCmd, ptr %37, i32 0, i32 2
  %39 = load ptr, ptr %38, align 8
  %40 = load ptr, ptr %5, align 8
  %41 = getelementptr inbounds nuw %struct.AlterTableCmd, ptr %40, i32 0, i32 2
  %42 = load ptr, ptr %41, align 8
  %43 = icmp eq ptr %39, %42
  br i1 %43, label %45, label %44

44:                                               ; preds = %36, %27
  store i1 false, ptr %3, align 1
  br label %123

45:                                               ; preds = %36, %27
  br label %46

46:                                               ; preds = %45
  br label %47

47:                                               ; preds = %46
  %48 = load ptr, ptr %4, align 8
  %49 = getelementptr inbounds nuw %struct.AlterTableCmd, ptr %48, i32 0, i32 3
  %50 = load i16, ptr %49, align 8
  %51 = sext i16 %50 to i32
  %52 = load ptr, ptr %5, align 8
  %53 = getelementptr inbounds nuw %struct.AlterTableCmd, ptr %52, i32 0, i32 3
  %54 = load i16, ptr %53, align 8
  %55 = sext i16 %54 to i32
  %56 = icmp ne i32 %51, %55
  br i1 %56, label %57, label %58

57:                                               ; preds = %47
  store i1 false, ptr %3, align 1
  br label %123

58:                                               ; preds = %47
  br label %59

59:                                               ; preds = %58
  br label %60

60:                                               ; preds = %59
  %61 = load ptr, ptr %4, align 8
  %62 = getelementptr inbounds nuw %struct.AlterTableCmd, ptr %61, i32 0, i32 4
  %63 = load ptr, ptr %62, align 8
  %64 = load ptr, ptr %5, align 8
  %65 = getelementptr inbounds nuw %struct.AlterTableCmd, ptr %64, i32 0, i32 4
  %66 = load ptr, ptr %65, align 8
  %67 = call zeroext i1 @equal(ptr noundef %63, ptr noundef %66)
  br i1 %67, label %69, label %68

68:                                               ; preds = %60
  store i1 false, ptr %3, align 1
  br label %123

69:                                               ; preds = %60
  br label %70

70:                                               ; preds = %69
  br label %71

71:                                               ; preds = %70
  %72 = load ptr, ptr %4, align 8
  %73 = getelementptr inbounds nuw %struct.AlterTableCmd, ptr %72, i32 0, i32 5
  %74 = load ptr, ptr %73, align 8
  %75 = load ptr, ptr %5, align 8
  %76 = getelementptr inbounds nuw %struct.AlterTableCmd, ptr %75, i32 0, i32 5
  %77 = load ptr, ptr %76, align 8
  %78 = call zeroext i1 @equal(ptr noundef %74, ptr noundef %77)
  br i1 %78, label %80, label %79

79:                                               ; preds = %71
  store i1 false, ptr %3, align 1
  br label %123

80:                                               ; preds = %71
  br label %81

81:                                               ; preds = %80
  br label %82

82:                                               ; preds = %81
  %83 = load ptr, ptr %4, align 8
  %84 = getelementptr inbounds nuw %struct.AlterTableCmd, ptr %83, i32 0, i32 6
  %85 = load i32, ptr %84, align 8
  %86 = load ptr, ptr %5, align 8
  %87 = getelementptr inbounds nuw %struct.AlterTableCmd, ptr %86, i32 0, i32 6
  %88 = load i32, ptr %87, align 8
  %89 = icmp ne i32 %85, %88
  br i1 %89, label %90, label %91

90:                                               ; preds = %82
  store i1 false, ptr %3, align 1
  br label %123

91:                                               ; preds = %82
  br label %92

92:                                               ; preds = %91
  br label %93

93:                                               ; preds = %92
  %94 = load ptr, ptr %4, align 8
  %95 = getelementptr inbounds nuw %struct.AlterTableCmd, ptr %94, i32 0, i32 7
  %96 = load i8, ptr %95, align 4, !range !4, !noundef !5
  %97 = trunc i8 %96 to i1
  %98 = zext i1 %97 to i32
  %99 = load ptr, ptr %5, align 8
  %100 = getelementptr inbounds nuw %struct.AlterTableCmd, ptr %99, i32 0, i32 7
  %101 = load i8, ptr %100, align 4, !range !4, !noundef !5
  %102 = trunc i8 %101 to i1
  %103 = zext i1 %102 to i32
  %104 = icmp ne i32 %98, %103
  br i1 %104, label %105, label %106

105:                                              ; preds = %93
  store i1 false, ptr %3, align 1
  br label %123

106:                                              ; preds = %93
  br label %107

107:                                              ; preds = %106
  br label %108

108:                                              ; preds = %107
  %109 = load ptr, ptr %4, align 8
  %110 = getelementptr inbounds nuw %struct.AlterTableCmd, ptr %109, i32 0, i32 8
  %111 = load i8, ptr %110, align 1, !range !4, !noundef !5
  %112 = trunc i8 %111 to i1
  %113 = zext i1 %112 to i32
  %114 = load ptr, ptr %5, align 8
  %115 = getelementptr inbounds nuw %struct.AlterTableCmd, ptr %114, i32 0, i32 8
  %116 = load i8, ptr %115, align 1, !range !4, !noundef !5
  %117 = trunc i8 %116 to i1
  %118 = zext i1 %117 to i32
  %119 = icmp ne i32 %113, %118
  br i1 %119, label %120, label %121

120:                                              ; preds = %108
  store i1 false, ptr %3, align 1
  br label %123

121:                                              ; preds = %108
  br label %122

122:                                              ; preds = %121
  store i1 true, ptr %3, align 1
  br label %123

123:                                              ; preds = %122, %120, %105, %90, %79, %68, %57, %44, %14
  %124 = load i1, ptr %3, align 1
  ret i1 %124
}