; Function Attrs: nounwind uwtable
define internal fastcc noundef zeroext i1 @_equalAlterTableCmd(ptr noundef nonnull readonly captures(none) %0, ptr noundef nonnull readonly captures(none) %1) unnamed_addr #0 {
  %3 = getelementptr inbounds nuw i8, ptr %0, i64 4
  %4 = load i32, ptr %3, align 4
  %5 = getelementptr inbounds nuw i8, ptr %1, i64 4
  %6 = load i32, ptr %5, align 4
  %.not = icmp eq i32 %4, %6
  br i1 %.not, label %7, label %.thread

7:                                                ; preds = %2
  %8 = getelementptr inbounds nuw i8, ptr %0, i64 8
  %9 = load ptr, ptr %8, align 8
  %.not23 = icmp eq ptr %9, null
  %.phi.trans.insert = getelementptr inbounds nuw i8, ptr %1, i64 8
  %.pre = load ptr, ptr %.phi.trans.insert, align 8
  br i1 %.not23, label %14, label %10

10:                                               ; preds = %7
  %.not24 = icmp eq ptr %.pre, null
  br i1 %.not24, label %.thread, label %11

11:                                               ; preds = %10
  %12 = tail call i32 @strcmp(ptr noundef nonnull dereferenceable(1) %9, ptr noundef nonnull dereferenceable(1) %.pre) #11
  %13 = icmp eq i32 %12, 0
  br i1 %13, label %16, label %.thread

14:                                               ; preds = %7
  %15 = icmp eq ptr %9, %.pre
  br i1 %15, label %16, label %.thread

16:                                               ; preds = %14, %11
  %17 = getelementptr inbounds nuw i8, ptr %0, i64 16
  %18 = load i16, ptr %17, align 8
  %19 = getelementptr inbounds nuw i8, ptr %1, i64 16
  %20 = load i16, ptr %19, align 8
  %.not25 = icmp eq i16 %18, %20
  br i1 %.not25, label %21, label %.thread

21:                                               ; preds = %16
  %22 = getelementptr inbounds nuw i8, ptr %0, i64 24
  %23 = load ptr, ptr %22, align 8
  %24 = getelementptr inbounds nuw i8, ptr %1, i64 24
  %25 = load ptr, ptr %24, align 8
  %26 = tail call zeroext i1 @equal(ptr noundef %23, ptr noundef %25)
  br i1 %26, label %27, label %.thread

27:                                               ; preds = %21
  %28 = getelementptr inbounds nuw i8, ptr %0, i64 32
  %29 = load ptr, ptr %28, align 8
  %30 = getelementptr inbounds nuw i8, ptr %1, i64 32
  %31 = load ptr, ptr %30, align 8
  %32 = tail call zeroext i1 @equal(ptr noundef %29, ptr noundef %31)
  br i1 %32, label %33, label %.thread

33:                                               ; preds = %27
  %34 = getelementptr inbounds nuw i8, ptr %0, i64 40
  %35 = load i32, ptr %34, align 8
  %36 = getelementptr inbounds nuw i8, ptr %1, i64 40
  %37 = load i32, ptr %36, align 8
  %.not26 = icmp eq i32 %35, %37
  br i1 %.not26, label %38, label %.thread

38:                                               ; preds = %33
  %39 = getelementptr inbounds nuw i8, ptr %0, i64 44
  %40 = load i8, ptr %39, align 4, !range !4, !noundef !5
  %41 = getelementptr inbounds nuw i8, ptr %1, i64 44
  %42 = load i8, ptr %41, align 4, !range !4, !noundef !5
  %.not27 = icmp eq i8 %40, %42
  br i1 %.not27, label %43, label %.thread

43:                                               ; preds = %38
  %44 = getelementptr inbounds nuw i8, ptr %0, i64 45
  %45 = load i8, ptr %44, align 1, !range !4, !noundef !5
  %46 = getelementptr inbounds nuw i8, ptr %1, i64 45
  %47 = load i8, ptr %46, align 1, !range !4, !noundef !5
  %.not28 = icmp eq i8 %45, %47
  br label %.thread

.thread:                                          ; preds = %10, %43, %38, %33, %27, %21, %16, %11, %14, %2
  %.0 = phi i1 [ false, %2 ], [ false, %14 ], [ false, %11 ], [ false, %16 ], [ false, %21 ], [ false, %27 ], [ false, %33 ], [ false, %38 ], [ %.not28, %43 ], [ false, %10 ]
  ret i1 %.0
}